target datalayout = "e-m:e-p270:32:32-p271:32:32-p272:64:64-i64:64-i128:128-f80:128-n8:16:32:64-S128"
target triple = "x86_64-pc-linux-gnu"

%struct.crypto_thread_st = type { i32, ptr, ptr, i32, ptr, ptr, ptr, ptr, i64, i32, ptr }

; Function Attrs: nounwind uwtable
define i32 @ossl_crypto_thread_native_join(ptr noundef %0, ptr noundef %1) #0 {
  %3 = alloca i32, align 4
  %4 = alloca ptr, align 8
  %5 = alloca ptr, align 8
  %6 = alloca i64, align 8
  %7 = alloca i32, align 4
  store ptr %0, ptr %4, align 8, !tbaa !9
  store ptr %1, ptr %5, align 8, !tbaa !22
  call void @llvm.lifetime.start.p0(i64 8, ptr %6) #3
  %8 = load ptr, ptr %4, align 8, !tbaa !9
  %9 = icmp eq ptr %8, null
  br i1 %9, label %10, label %11

10:                                               ; preds = %2
  store i32 0, ptr %3, align 4
  store i32 1, ptr %7, align 4
  br label %153

11:                                               ; preds = %2
  %12 = load ptr, ptr %4, align 8, !tbaa !9
  %13 = getelementptr inbounds nuw %struct.crypto_thread_st, ptr %12, i32 0, i32 6
  %14 = load ptr, ptr %13, align 8, !tbaa !17
  call void @ossl_crypto_mutex_lock(ptr noundef %14)
  store i64 5, ptr %6, align 8, !tbaa !24
  br label %15

15:                                               ; preds = %24, %11
  %16 = load ptr, ptr %4, align 8, !tbaa !9
  %17 = getelementptr inbounds nuw %struct.crypto_thread_st, ptr %16, i32 0, i32 0
  %18 = load i32, ptr %17, align 8, !tbaa !25
  %19 = zext i32 %18 to i64
  %20 = load i64, ptr %6, align 8, !tbaa !24
  %21 = and i64 %19, %20
  %22 = icmp ne i64 %21, 0
  %23 = xor i1 %22, true
  br i1 %23, label %24, label %31

24:                                               ; preds = %15
  %25 = load ptr, ptr %4, align 8, !tbaa !9
  %26 = getelementptr inbounds nuw %struct.crypto_thread_st, ptr %25, i32 0, i32 7
  %27 = load ptr, ptr %26, align 8, !tbaa !18
  %28 = load ptr, ptr %4, align 8, !tbaa !9
  %29 = getelementptr inbounds nuw %struct.crypto_thread_st, ptr %28, i32 0, i32 6
  %30 = load ptr, ptr %29, align 8, !tbaa !17
  call void @ossl_crypto_condvar_wait(ptr noundef %27, ptr noundef %30)
  br label %15, !llvm.loop !26

31:                                               ; preds = %15
  %32 = load ptr, ptr %4, align 8, !tbaa !9
  %33 = getelementptr inbounds nuw %struct.crypto_thread_st, ptr %32, i32 0, i32 0
  %34 = load i32, ptr %33, align 8, !tbaa !25
  %35 = zext i32 %34 to i64
  %36 = and i64 %35, 4
  %37 = icmp ne i64 %36, 0
  br i1 %37, label %38, label %39

38:                                               ; preds = %31
  br label %92

39:                                               ; preds = %31
  br label %40

40:                                               ; preds = %69, %39
  %41 = load ptr, ptr %4, align 8, !tbaa !9
  %42 = getelementptr inbounds nuw %struct.crypto_thread_st, ptr %41, i32 0, i32 0
  %43 = load i32, ptr %42, align 8, !tbaa !25
  %44 = zext i32 %43 to i64
  %45 = and i64 %44, 2
  %46 = icmp ne i64 %45, 0
  br i1 %46, label %47, label %70

47:                                               ; preds = %40
  %48 = load ptr, ptr %4, align 8, !tbaa !9
  %49 = getelementptr inbounds nuw %struct.crypto_thread_st, ptr %48, i32 0, i32 0
  %50 = load i32, ptr %49, align 8, !tbaa !25
  %51 = zext i32 %50 to i64
  %52 = and i64 %51, 4
  %53 = icmp ne i64 %52, 0
  br i1 %53, label %61, label %54

54:                                               ; preds = %47
  %55 = load ptr, ptr %4, align 8, !tbaa !9
  %56 = getelementptr inbounds nuw %struct.crypto_thread_st, ptr %55, i32 0, i32 7
  %57 = load ptr, ptr %56, align 8, !tbaa !18
  %58 = load ptr, ptr %4, align 8, !tbaa !9
  %59 = getelementptr inbounds nuw %struct.crypto_thread_st, ptr %58, i32 0, i32 6
  %60 = load ptr, ptr %59, align 8, !tbaa !17
  call void @ossl_crypto_condvar_wait(ptr noundef %57, ptr noundef %60)
  br label %61

61:                                               ; preds = %54, %47
  %62 = load ptr, ptr %4, align 8, !tbaa !9
  %63 = getelementptr inbounds nuw %struct.crypto_thread_st, ptr %62, i32 0, i32 0
  %64 = load i32, ptr %63, align 8, !tbaa !25
  %65 = zext i32 %64 to i64
  %66 = and i64 %65, 4
  %67 = icmp ne i64 %66, 0
  br i1 %67, label %68, label %69

68:                                               ; preds = %61
  br label %92

69:                                               ; preds = %61
  br label %40, !llvm.loop !28

70:                                               ; preds = %40
  br label %71

71:                                               ; preds = %70
  %72 = load ptr, ptr %4, align 8, !tbaa !9
  %73 = getelementptr inbounds nuw %struct.crypto_thread_st, ptr %72, i32 0, i32 0
  %74 = load i32, ptr %73, align 8, !tbaa !25
  %75 = zext i32 %74 to i64
  %76 = or i64 %75, 2
  %77 = trunc i64 %76 to i32
  store i32 %77, ptr %73, align 8, !tbaa !25
  br label %78

78:                                               ; preds = %71
  br label %79

79:                                               ; preds = %78
  %80 = load ptr, ptr %4, align 8, !tbaa !9
  %81 = getelementptr inbounds nuw %struct.crypto_thread_st, ptr %80, i32 0, i32 6
  %82 = load ptr, ptr %81, align 8, !tbaa !17
  call void @ossl_crypto_mutex_unlock(ptr noundef %82)
  %83 = load ptr, ptr %4, align 8, !tbaa !9
  %84 = load ptr, ptr %5, align 8, !tbaa !22
  %85 = call i32 @ossl_crypto_thread_native_perform_join(ptr noundef %83, ptr noundef %84)
  %86 = icmp eq i32 %85, 0
  br i1 %86, label %87, label %88

87:                                               ; preds = %79
  br label %125

88:                                               ; preds = %79
  %89 = load ptr, ptr %4, align 8, !tbaa !9
  %90 = getelementptr inbounds nuw %struct.crypto_thread_st, ptr %89, i32 0, i32 6
  %91 = load ptr, ptr %90, align 8, !tbaa !17
  call void @ossl_crypto_mutex_lock(ptr noundef %91)
  br label %92

92:                                               ; preds = %88, %68, %38
  br label %93

93:                                               ; preds = %92
  %94 = load ptr, ptr %4, align 8, !tbaa !9
  %95 = getelementptr inbounds nuw %struct.crypto_thread_st, ptr %94, i32 0, i32 0
  %96 = load i32, ptr %95, align 8, !tbaa !25
  %97 = zext i32 %96 to i64
  %98 = and i64 %97, -262145
  %99 = trunc i64 %98 to i32
  store i32 %99, ptr %95, align 8, !tbaa !25
  br label %100

100:                                              ; preds = %93
  br label %101

101:                                              ; preds = %100
  br label %102

102:                                              ; preds = %101
  %103 = load ptr, ptr %4, align 8, !tbaa !9
  %104 = getelementptr inbounds nuw %struct.crypto_thread_st, ptr %103, i32 0, i32 0
  %105 = load i32, ptr %104, align 8, !tbaa !25
  %106 = zext i32 %105 to i64
  %107 = or i64 %106, 4
  %108 = trunc i64 %107 to i32
  store i32 %108, ptr %104, align 8, !tbaa !25
  br label %109

109:                                              ; preds = %102
  br label %110

110:                                              ; preds = %109
  %111 = load ptr, ptr %4, align 8, !tbaa !9
  %112 = getelementptr inbounds nuw %struct.crypto_thread_st, ptr %111, i32 0, i32 7
  %113 = load ptr, ptr %112, align 8, !tbaa !18
  call void @ossl_crypto_condvar_signal(ptr noundef %113)
  %114 = load ptr, ptr %4, align 8, !tbaa !9
  %115 = getelementptr inbounds nuw %struct.crypto_thread_st, ptr %114, i32 0, i32 6
  %116 = load ptr, ptr %115, align 8, !tbaa !17
  call void @ossl_crypto_mutex_unlock(ptr noundef %116)
  %117 = load ptr, ptr %5, align 8, !tbaa !22
  %118 = icmp ne ptr %117, null
  br i1 %118, label %119, label %124

119:                                              ; preds = %110
  %120 = load ptr, ptr %4, align 8, !tbaa !9
  %121 = getelementptr inbounds nuw %struct.crypto_thread_st, ptr %120, i32 0, i32 3
  %122 = load i32, ptr %121, align 8, !tbaa !29
  %123 = load ptr, ptr %5, align 8, !tbaa !22
  store i32 %122, ptr %123, align 4, !tbaa !7
  br label %124

124:                                              ; preds = %119, %110
  store i32 1, ptr %3, align 4
  store i32 1, ptr %7, align 4
  br label %153

125:                                              ; preds = %87
  %126 = load ptr, ptr %4, align 8, !tbaa !9
  %127 = getelementptr inbounds nuw %struct.crypto_thread_st, ptr %126, i32 0, i32 6
  %128 = load ptr, ptr %127, align 8, !tbaa !17
  call void @ossl_crypto_mutex_lock(ptr noundef %128)
  br label %129

129:                                              ; preds = %125
  %130 = load ptr, ptr %4, align 8, !tbaa !9
  %131 = getelementptr inbounds nuw %struct.crypto_thread_st, ptr %130, i32 0, i32 0
  %132 = load i32, ptr %131, align 8, !tbaa !25
  %133 = zext i32 %132 to i64
  %134 = or i64 %133, 262144
  %135 = trunc i64 %134 to i32
  store i32 %135, ptr %131, align 8, !tbaa !25
  br label %136

136:                                              ; preds = %129
  br label %137

137:                                              ; preds = %136
  br label %138

138:                                              ; preds = %137
  %139 = load ptr, ptr %4, align 8, !tbaa !9
  %140 = getelementptr inbounds nuw %struct.crypto_thread_st, ptr %139, i32 0, i32 0
  %141 = load i32, ptr %140, align 8, !tbaa !25
  %142 = zext i32 %141 to i64
  %143 = and i64 %142, -3
  %144 = trunc i64 %143 to i32
  store i32 %144, ptr %140, align 8, !tbaa !25
  br label %145

145:                                              ; preds = %138
  br label %146

146:                                              ; preds = %145
  %147 = load ptr, ptr %4, align 8, !tbaa !9
  %148 = getelementptr inbounds nuw %struct.crypto_thread_st, ptr %147, i32 0, i32 7
  %149 = load ptr, ptr %148, align 8, !tbaa !18
  call void @ossl_crypto_condvar_signal(ptr noundef %149)
  %150 = load ptr, ptr %4, align 8, !tbaa !9
  %151 = getelementptr inbounds nuw %struct.crypto_thread_st, ptr %150, i32 0, i32 6
  %152 = load ptr, ptr %151, align 8, !tbaa !17
  call void @ossl_crypto_mutex_unlock(ptr noundef %152)
  store i32 0, ptr %3, align 4
  store i32 1, ptr %7, align 4
  br label %153

153:                                              ; preds = %146, %124, %10
  call void @llvm.lifetime.end.p0(i64 8, ptr %6) #3
  %154 = load i32, ptr %3, align 4
  ret i32 %154
}