; Function Attrs: nounwind uwtable
define range(i32 0, 2) i32 @ossl_crypto_thread_native_join(ptr noundef %0, ptr noundef %1) local_unnamed_addr #0 {
  %3 = icmp eq ptr %0, null
  br i1 %3, label %53, label %4

4:                                                ; preds = %2
  %5 = getelementptr inbounds nuw i8, ptr %0, i64 48
  %6 = load ptr, ptr %5, align 8, !tbaa !13
  tail call void @ossl_crypto_mutex_lock(ptr noundef %6) #2
  %7 = load i32, ptr %0, align 8, !tbaa !18
  %8 = zext i32 %7 to i64
  %9 = and i64 %8, 5
  %.not38 = icmp eq i64 %9, 0
  br i1 %.not38, label %.lr.ph, label %._crit_edge

.lr.ph:                                           ; preds = %4
  %10 = getelementptr inbounds nuw i8, ptr %0, i64 56
  br label %11

11:                                               ; preds = %.lr.ph, %11
  %12 = load ptr, ptr %10, align 8, !tbaa !14
  %13 = load ptr, ptr %5, align 8, !tbaa !13
  tail call void @ossl_crypto_condvar_wait(ptr noundef %12, ptr noundef %13) #2
  %14 = load i32, ptr %0, align 8, !tbaa !18
  %15 = zext i32 %14 to i64
  %16 = and i64 %15, 5
  %.not = icmp eq i64 %16, 0
  br i1 %.not, label %11, label %._crit_edge, !llvm.loop !19

._crit_edge:                                      ; preds = %11, %4
  %17 = phi i32 [ %7, %4 ], [ %14, %11 ]
  %.lcssa37 = phi i64 [ %8, %4 ], [ %15, %11 ]
  %18 = and i64 %.lcssa37, 4
  %.not31 = icmp eq i64 %18, 0
  br i1 %.not31, label %.preheader, label %.loopexit

.preheader:                                       ; preds = %._crit_edge
  %19 = getelementptr inbounds nuw i8, ptr %0, i64 56
  br label %20

20:                                               ; preds = %.preheader, %29
  %21 = phi i32 [ %17, %.preheader ], [ %30, %29 ]
  %22 = zext i32 %21 to i64
  %23 = and i64 %22, 2
  %.not32 = icmp eq i64 %23, 0
  br i1 %.not32, label %32, label %24

24:                                               ; preds = %20
  %25 = and i64 %22, 4
  %.not33 = icmp eq i64 %25, 0
  br i1 %.not33, label %26, label %29

26:                                               ; preds = %24
  %27 = load ptr, ptr %19, align 8, !tbaa !14
  %28 = load ptr, ptr %5, align 8, !tbaa !13
  tail call void @ossl_crypto_condvar_wait(ptr noundef %27, ptr noundef %28) #2
  %.pre = load i32, ptr %0, align 8, !tbaa !18
  br label %29

29:                                               ; preds = %26, %24
  %30 = phi i32 [ %.pre, %26 ], [ %21, %24 ]
  %31 = and i32 %30, 4
  %.not34 = icmp eq i32 %31, 0
  br i1 %.not34, label %20, label %.loopexit, !llvm.loop !21

32:                                               ; preds = %20
  %33 = or i32 %21, 2
  store i32 %33, ptr %0, align 8, !tbaa !18
  %34 = load ptr, ptr %5, align 8, !tbaa !13
  tail call void @ossl_crypto_mutex_unlock(ptr noundef %34) #2
  %35 = tail call i32 @ossl_crypto_thread_native_perform_join(ptr noundef nonnull %0, ptr noundef %1) #2
  %36 = icmp eq i32 %35, 0
  %37 = load ptr, ptr %5, align 8, !tbaa !13
  tail call void @ossl_crypto_mutex_lock(ptr noundef %37) #2
  %38 = load i32, ptr %0, align 8, !tbaa !18
  br i1 %36, label %48, label %.loopexit

.loopexit:                                        ; preds = %29, %32, %._crit_edge
  %39 = phi i32 [ %17, %._crit_edge ], [ %38, %32 ], [ %30, %29 ]
  %40 = and i32 %39, -262149
  %41 = or disjoint i32 %40, 4
  store i32 %41, ptr %0, align 8, !tbaa !18
  %42 = getelementptr inbounds nuw i8, ptr %0, i64 56
  %43 = load ptr, ptr %42, align 8, !tbaa !14
  tail call void @ossl_crypto_condvar_signal(ptr noundef %43) #2
  %44 = load ptr, ptr %5, align 8, !tbaa !13
  tail call void @ossl_crypto_mutex_unlock(ptr noundef %44) #2
  %.not35 = icmp eq ptr %1, null
  br i1 %.not35, label %53, label %45

45:                                               ; preds = %.loopexit
  %46 = getelementptr inbounds nuw i8, ptr %0, i64 24
  %47 = load i32, ptr %46, align 8, !tbaa !22
  store i32 %47, ptr %1, align 4, !tbaa !23
  br label %53

48:                                               ; preds = %32
  %49 = and i32 %38, -262147
  %50 = or disjoint i32 %49, 262144
  store i32 %50, ptr %0, align 8, !tbaa !18
  %51 = load ptr, ptr %19, align 8, !tbaa !14
  tail call void @ossl_crypto_condvar_signal(ptr noundef %51) #2
  %52 = load ptr, ptr %5, align 8, !tbaa !13
  tail call void @ossl_crypto_mutex_unlock(ptr noundef %52) #2
  br label %53

53:                                               ; preds = %.loopexit, %45, %2, %48
  %.0 = phi i32 [ 0, %48 ], [ 0, %2 ], [ 1, %45 ], [ 1, %.loopexit ]
  ret i32 %.0
}